target datalayout = "e-m:e-p270:32:32-p271:32:32-p272:64:64-i64:64-i128:128-f80:128-n8:16:32:64-S128"
target triple = "x86_64-pc-linux-gnu"

@hf_bgp_sr_policy_nlri_length = internal global i32 0, align 4
@hf_bgp_sr_policy_nlri_distinguisher = internal global i32 0, align 4
@hf_bgp_sr_policy_nlri_policy_color = internal global i32 0, align 4
@hf_bgp_sr_policy_nlri_endpoint_v4 = internal global i32 0, align 4
@hf_bgp_sr_policy_nlri_endpoint_v6 = internal global i32 0, align 4

; Function Attrs: null_pointer_is_valid sspstrong uwtable
define internal i32 @decode_sr_policy_nlri(ptr noundef %0, ptr noundef %1, i32 noundef %2, i16 noundef zeroext %3) #0 {
  %5 = alloca i32, align 4
  %6 = alloca ptr, align 8
  %7 = alloca ptr, align 8
  %8 = alloca i32, align 4
  %9 = alloca i16, align 2
  store ptr %0, ptr %6, align 8
  store ptr %1, ptr %7, align 8
  store i32 %2, ptr %8, align 4
  store i16 %3, ptr %9, align 2
  %10 = load ptr, ptr %6, align 8
  %11 = load i32, ptr @hf_bgp_sr_policy_nlri_length, align 4
  %12 = load ptr, ptr %7, align 8
  %13 = load i32, ptr %8, align 4
  %14 = call ptr @proto_tree_add_item(ptr noundef %10, i32 noundef %11, ptr noundef %12, i32 noundef %13, i32 noundef 1, i32 noundef 0)
  %15 = load i32, ptr %8, align 4
  %16 = add i32 %15, 1
  store i32 %16, ptr %8, align 4
  %17 = load ptr, ptr %6, align 8
  %18 = load i32, ptr @hf_bgp_sr_policy_nlri_distinguisher, align 4
  %19 = load ptr, ptr %7, align 8
  %20 = load i32, ptr %8, align 4
  %21 = call ptr @proto_tree_add_item(ptr noundef %17, i32 noundef %18, ptr noundef %19, i32 noundef %20, i32 noundef 4, i32 noundef 0)
  %22 = load i32, ptr %8, align 4
  %23 = add i32 %22, 4
  store i32 %23, ptr %8, align 4
  %24 = load ptr, ptr %6, align 8
  %25 = load i32, ptr @hf_bgp_sr_policy_nlri_policy_color, align 4
  %26 = load ptr, ptr %7, align 8
  %27 = load i32, ptr %8, align 4
  %28 = call ptr @proto_tree_add_item(ptr noundef %24, i32 noundef %25, ptr noundef %26, i32 noundef %27, i32 noundef 4, i32 noundef 0)
  %29 = load i32, ptr %8, align 4
  %30 = add i32 %29, 4
  store i32 %30, ptr %8, align 4
  %31 = load i16, ptr %9, align 2
  %32 = zext i16 %31 to i32
  %33 = icmp eq i32 %32, 1
  br i1 %33, label %34, label %40

34:                                               ; preds = %4
  %35 = load ptr, ptr %6, align 8
  %36 = load i32, ptr @hf_bgp_sr_policy_nlri_endpoint_v4, align 4
  %37 = load ptr, ptr %7, align 8
  %38 = load i32, ptr %8, align 4
  %39 = call ptr @proto_tree_add_item(ptr noundef %35, i32 noundef %36, ptr noundef %37, i32 noundef %38, i32 noundef 4, i32 noundef 0)
  store i32 13, ptr %5, align 4
  br label %46

40:                                               ; preds = %4
  %41 = load ptr, ptr %6, align 8
  %42 = load i32, ptr @hf_bgp_sr_policy_nlri_endpoint_v6, align 4
  %43 = load ptr, ptr %7, align 8
  %44 = load i32, ptr %8, align 4
  %45 = call ptr @proto_tree_add_item(ptr noundef %41, i32 noundef %42, ptr noundef %43, i32 noundef %44, i32 noundef 4, i32 noundef 0)
  store i32 25, ptr %5, align 4
  br label %46

46:                                               ; preds = %40, %34
  %47 = load i32, ptr %5, align 4
  ret i32 %47
}