; Function Attrs: null_pointer_is_valid sspstrong uwtable
define internal fastcc noundef range(i32 13, 26) i32 @decode_sr_policy_nlri(ptr noundef %0, ptr noundef %1, i32 noundef %2, i16 noundef zeroext %3) unnamed_addr #0 {
  %5 = load i32, ptr @hf_bgp_sr_policy_nlri_length, align 4
  %6 = tail call ptr @proto_tree_add_item(ptr noundef %0, i32 noundef %5, ptr noundef %1, i32 noundef %2, i32 noundef 1, i32 noundef 0)
  %7 = add i32 %2, 1
  %8 = load i32, ptr @hf_bgp_sr_policy_nlri_distinguisher, align 4
  %9 = tail call ptr @proto_tree_add_item(ptr noundef %0, i32 noundef %8, ptr noundef %1, i32 noundef %7, i32 noundef 4, i32 noundef 0)
  %10 = add i32 %2, 5
  %11 = load i32, ptr @hf_bgp_sr_policy_nlri_policy_color, align 4
  %12 = tail call ptr @proto_tree_add_item(ptr noundef %0, i32 noundef %11, ptr noundef %1, i32 noundef %10, i32 noundef 4, i32 noundef 0)
  %13 = add i32 %2, 9
  %14 = icmp eq i16 %3, 1
  %. = select i1 %14, i32 13, i32 25
  %hf_bgp_sr_policy_nlri_endpoint_v4.val = load i32, ptr @hf_bgp_sr_policy_nlri_endpoint_v4, align 4
  %hf_bgp_sr_policy_nlri_endpoint_v6.val = load i32, ptr @hf_bgp_sr_policy_nlri_endpoint_v6, align 4
  %15 = select i1 %14, i32 %hf_bgp_sr_policy_nlri_endpoint_v4.val, i32 %hf_bgp_sr_policy_nlri_endpoint_v6.val
  %16 = tail call ptr @proto_tree_add_item(ptr noundef %0, i32 noundef %15, ptr noundef %1, i32 noundef %13, i32 noundef 4, i32 noundef 0)
  ret i32 %.
}